target datalayout = "e-m:e-p270:32:32-p271:32:32-p272:64:64-i64:64-i128:128-f80:128-n8:16:32:64-S128"
target triple = "x86_64-pc-linux-gnu"

@bio_err = external global ptr, align 8
@.str.95 = private unnamed_addr constant [23 x i8] c"../openssl/apps/dgst.c\00", align 1
@.str.96 = private unnamed_addr constant [18 x i8] c"Read error in %s\0A\00", align 1
@.str.97 = private unnamed_addr constant [45 x i8] c"Error getting maximum length of signed data\0A\00", align 1
@.str.98 = private unnamed_addr constant [17 x i8] c"Signature buffer\00", align 1
@.str.99 = private unnamed_addr constant [20 x i8] c"Error signing data\0A\00", align 1
@.str.106 = private unnamed_addr constant [13 x i8] c"Verified OK\0A\00", align 1
@.str.107 = private unnamed_addr constant [22 x i8] c"Verification failure\0A\00", align 1
@.str.108 = private unnamed_addr constant [22 x i8] c"Error verifying data\0A\00", align 1
@.str.116 = private unnamed_addr constant [41 x i8] c"key must be set for one-shot algorithms\0A\00", align 1

; Function Attrs: nounwind uwtable
define internal void @print_verify_result(ptr noundef %0, i32 noundef %1) #0 {
  %3 = alloca ptr, align 8
  %4 = alloca i32, align 4
  store ptr %0, ptr %3, align 8, !tbaa !11
  store i32 %1, ptr %4, align 4, !tbaa !4
  %5 = load i32, ptr %4, align 4, !tbaa !4
  %6 = icmp sgt i32 %5, 0
  br i1 %6, label %7, label %10

7:                                                ; preds = %2
  %8 = load ptr, ptr %3, align 8, !tbaa !11
  %9 = call i32 (ptr, ptr, ...) @BIO_printf(ptr noundef %8, ptr noundef @.str.106)
  br label %20

10:                                               ; preds = %2
  %11 = load i32, ptr %4, align 4, !tbaa !4
  %12 = icmp eq i32 %11, 0
  br i1 %12, label %13, label %16

13:                                               ; preds = %10
  %14 = load ptr, ptr %3, align 8, !tbaa !11
  %15 = call i32 (ptr, ptr, ...) @BIO_printf(ptr noundef %14, ptr noundef @.str.107)
  br label %19

16:                                               ; preds = %10
  %17 = load ptr, ptr @bio_err, align 8, !tbaa !11
  %18 = call i32 (ptr, ptr, ...) @BIO_printf(ptr noundef %17, ptr noundef @.str.108)
  br label %19

19:                                               ; preds = %16, %13
  br label %20

20:                                               ; preds = %19, %7
  ret void
}

; Function Attrs: nounwind uwtable
define internal i32 @do_fp_oneshot_sign(ptr noundef %0, ptr noundef %1, ptr noundef %2, i32 noundef %3, i32 noundef %4, ptr noundef %5, ptr noundef %6, i32 noundef %7, ptr noundef %8, ptr noundef %9) #0 {
  %11 = alloca i32, align 4
  %12 = alloca ptr, align 8
  %13 = alloca ptr, align 8
  %14 = alloca ptr, align 8
  %15 = alloca i32, align 4
  %16 = alloca i32, align 4
  %17 = alloca ptr, align 8
  %18 = alloca ptr, align 8
  %19 = alloca i32, align 4
  %20 = alloca ptr, align 8
  %21 = alloca ptr, align 8
  %22 = alloca i32, align 4
  %23 = alloca i32, align 4
  %24 = alloca i64, align 8
  %25 = alloca i32, align 4
  %26 = alloca i32, align 4
  %27 = alloca ptr, align 8
  %28 = alloca ptr, align 8
  %29 = alloca i32, align 4
  store ptr %0, ptr %12, align 8, !tbaa !11
  store ptr %1, ptr %13, align 8, !tbaa !23
  store ptr %2, ptr %14, align 8, !tbaa !11
  store i32 %3, ptr %15, align 4, !tbaa !4
  store i32 %4, ptr %16, align 4, !tbaa !4
  store ptr %5, ptr %17, align 8, !tbaa !15
  store ptr %6, ptr %18, align 8, !tbaa !19
  store i32 %7, ptr %19, align 4, !tbaa !4
  store ptr %8, ptr %20, align 8, !tbaa !19
  store ptr %9, ptr %21, align 8, !tbaa !19
  call void @llvm.lifetime.start.p0(i64 4, ptr %22) #8
  call void @llvm.lifetime.start.p0(i64 4, ptr %23) #8
  store i32 1, ptr %23, align 4, !tbaa !4
  call void @llvm.lifetime.start.p0(i64 8, ptr %24) #8
  store i64 0, ptr %24, align 8, !tbaa !49
  call void @llvm.lifetime.start.p0(i64 4, ptr %25) #8
  store i32 0, ptr %25, align 4, !tbaa !4
  call void @llvm.lifetime.start.p0(i64 4, ptr %26) #8
  store i32 16777216, ptr %26, align 4, !tbaa !4
  call void @llvm.lifetime.start.p0(i64 8, ptr %27) #8
  store ptr null, ptr %27, align 8, !tbaa !19
  call void @llvm.lifetime.start.p0(i64 8, ptr %28) #8
  store ptr null, ptr %28, align 8, !tbaa !19
  %30 = load i32, ptr %26, align 4, !tbaa !4
  %31 = load ptr, ptr %14, align 8, !tbaa !11
  %32 = call i32 @bio_to_mem(ptr noundef %27, i32 noundef %30, ptr noundef %31)
  store i32 %32, ptr %25, align 4, !tbaa !4
  %33 = load i32, ptr %25, align 4, !tbaa !4
  %34 = icmp sle i32 %33, 0
  br i1 %34, label %35, label %40

35:                                               ; preds = %10
  %36 = load ptr, ptr @bio_err, align 8, !tbaa !11
  %37 = load ptr, ptr %21, align 8, !tbaa !19
  %38 = call i32 (ptr, ptr, ...) @BIO_printf(ptr noundef %36, ptr noundef @.str.96, ptr noundef %37)
  %39 = load i32, ptr %23, align 4, !tbaa !4
  store i32 %39, ptr %11, align 4
  store i32 1, ptr %29, align 4
  br label %102

40:                                               ; preds = %10
  %41 = load ptr, ptr %18, align 8, !tbaa !19
  %42 = icmp ne ptr %41, null
  br i1 %42, label %43, label %58

43:                                               ; preds = %40
  %44 = load ptr, ptr %13, align 8, !tbaa !23
  %45 = load ptr, ptr %18, align 8, !tbaa !19
  %46 = load i32, ptr %19, align 4, !tbaa !4
  %47 = sext i32 %46 to i64
  %48 = load ptr, ptr %27, align 8, !tbaa !19
  %49 = load i32, ptr %25, align 4, !tbaa !4
  %50 = sext i32 %49 to i64
  %51 = call i32 @EVP_DigestVerify(ptr noundef %44, ptr noundef %45, i64 noundef %47, ptr noundef %48, i64 noundef %50)
  store i32 %51, ptr %22, align 4, !tbaa !4
  %52 = load ptr, ptr %12, align 8, !tbaa !11
  %53 = load i32, ptr %22, align 4, !tbaa !4
  call void @print_verify_result(ptr noundef %52, i32 noundef %53)
  %54 = load i32, ptr %22, align 4, !tbaa !4
  %55 = icmp sgt i32 %54, 0
  br i1 %55, label %56, label %57

56:                                               ; preds = %43
  store i32 0, ptr %23, align 4, !tbaa !4
  br label %57

57:                                               ; preds = %56, %43
  br label %96

58:                                               ; preds = %40
  %59 = load ptr, ptr %17, align 8, !tbaa !15
  %60 = icmp ne ptr %59, null
  br i1 %60, label %61, label %92

61:                                               ; preds = %58
  %62 = load ptr, ptr %13, align 8, !tbaa !23
  %63 = load ptr, ptr %27, align 8, !tbaa !19
  %64 = load i32, ptr %25, align 4, !tbaa !4
  %65 = sext i32 %64 to i64
  %66 = call i32 @EVP_DigestSign(ptr noundef %62, ptr noundef null, ptr noundef %24, ptr noundef %63, i64 noundef %65)
  %67 = icmp ne i32 %66, 1
  br i1 %67, label %68, label %71

68:                                               ; preds = %61
  %69 = load ptr, ptr @bio_err, align 8, !tbaa !11
  %70 = call i32 (ptr, ptr, ...) @BIO_printf(ptr noundef %69, ptr noundef @.str.97)
  br label %96

71:                                               ; preds = %61
  %72 = load i64, ptr %24, align 8, !tbaa !49
  %73 = call ptr @app_malloc(i64 noundef %72, ptr noundef @.str.98)
  store ptr %73, ptr %28, align 8, !tbaa !19
  %74 = load ptr, ptr %13, align 8, !tbaa !23
  %75 = load ptr, ptr %28, align 8, !tbaa !19
  %76 = load ptr, ptr %27, align 8, !tbaa !19
  %77 = load i32, ptr %25, align 4, !tbaa !4
  %78 = sext i32 %77 to i64
  %79 = call i32 @EVP_DigestSign(ptr noundef %74, ptr noundef %75, ptr noundef %24, ptr noundef %76, i64 noundef %78)
  %80 = icmp ne i32 %79, 1
  br i1 %80, label %81, label %84

81:                                               ; preds = %71
  %82 = load ptr, ptr @bio_err, align 8, !tbaa !11
  %83 = call i32 (ptr, ptr, ...) @BIO_printf(ptr noundef %82, ptr noundef @.str.99)
  br label %96

84:                                               ; preds = %71
  %85 = load ptr, ptr %12, align 8, !tbaa !11
  %86 = load ptr, ptr %28, align 8, !tbaa !19
  %87 = load i64, ptr %24, align 8, !tbaa !49
  %88 = load i32, ptr %15, align 4, !tbaa !4
  %89 = load i32, ptr %16, align 4, !tbaa !4
  %90 = load ptr, ptr %20, align 8, !tbaa !19
  %91 = load ptr, ptr %21, align 8, !tbaa !19
  call void @print_out(ptr noundef %85, ptr noundef %86, i64 noundef %87, i32 noundef %88, i32 noundef %89, ptr noundef %90, ptr noundef null, ptr noundef %91)
  store i32 0, ptr %23, align 4, !tbaa !4
  br label %95

92:                                               ; preds = %58
  %93 = load ptr, ptr @bio_err, align 8, !tbaa !11
  %94 = call i32 (ptr, ptr, ...) @BIO_printf(ptr noundef %93, ptr noundef @.str.116)
  br label %96

95:                                               ; preds = %84
  br label %96

96:                                               ; preds = %95, %92, %81, %68, %57
  %97 = load ptr, ptr %28, align 8, !tbaa !19
  call void @CRYPTO_free(ptr noundef %97, ptr noundef @.str.95, i32 noundef 741)
  %98 = load ptr, ptr %27, align 8, !tbaa !19
  %99 = load i32, ptr %25, align 4, !tbaa !4
  %100 = sext i32 %99 to i64
  call void @CRYPTO_clear_free(ptr noundef %98, i64 noundef %100, ptr noundef @.str.95, i32 noundef 742)
  %101 = load i32, ptr %23, align 4, !tbaa !4
  store i32 %101, ptr %11, align 4
  store i32 1, ptr %29, align 4
  br label %102

102:                                              ; preds = %96, %35
  call void @llvm.lifetime.end.p0(i64 8, ptr %28) #8
  call void @llvm.lifetime.end.p0(i64 8, ptr %27) #8
  call void @llvm.lifetime.end.p0(i64 4, ptr %26) #8
  call void @llvm.lifetime.end.p0(i64 4, ptr %25) #8
  call void @llvm.lifetime.end.p0(i64 8, ptr %24) #8
  call void @llvm.lifetime.end.p0(i64 4, ptr %23) #8
  call void @llvm.lifetime.end.p0(i64 4, ptr %22) #8
  %103 = load i32, ptr %11, align 4
  ret i32 %103
}