; Function Attrs: nounwind uwtable
define internal fastcc range(i32 0, 2) i32 @do_fp_oneshot_sign(ptr noundef nonnull %0, ptr noundef %1, ptr noundef nonnull %2, i32 noundef range(i32 0, 3) %3, i32 noundef range(i32 0, 2) %4, ptr noundef readnone captures(address_is_null) %5, ptr noundef %6, i32 noundef %7, ptr noundef %8, ptr noundef %9) unnamed_addr #0 {
  %11 = alloca i64, align 8
  %12 = alloca ptr, align 8
  call void @llvm.lifetime.start.p0(i64 8, ptr nonnull %11) #8
  store i64 0, ptr %11, align 8, !tbaa !36
  call void @llvm.lifetime.start.p0(i64 8, ptr nonnull %12) #8
  store ptr null, ptr %12, align 8, !tbaa !4
  %13 = call i32 @bio_to_mem(ptr noundef nonnull %12, i32 noundef 16777216, ptr noundef nonnull %2) #8
  %14 = icmp slt i32 %13, 1
  br i1 %14, label %15, label %18

15:                                               ; preds = %10
  %16 = load ptr, ptr @bio_err, align 8, !tbaa !15
  %17 = call i32 (ptr, ptr, ...) @BIO_printf(ptr noundef %16, ptr noundef nonnull @.str.96, ptr noundef %9) #8
  br label %57

18:                                               ; preds = %10
  %.not = icmp eq ptr %6, null
  br i1 %.not, label %34, label %19

19:                                               ; preds = %18
  %20 = sext i32 %7 to i64
  %21 = load ptr, ptr %12, align 8, !tbaa !4
  %22 = zext nneg i32 %13 to i64
  %23 = call i32 @EVP_DigestVerify(ptr noundef %1, ptr noundef nonnull %6, i64 noundef %20, ptr noundef %21, i64 noundef %22) #8
  %24 = icmp slt i32 %23, 1
  br i1 %24, label %27, label %25

25:                                               ; preds = %19
  %26 = call i32 (ptr, ptr, ...) @BIO_printf(ptr noundef nonnull %0, ptr noundef nonnull @.str.106) #8
  br label %print_verify_result.exit

27:                                               ; preds = %19
  %28 = icmp eq i32 %23, 0
  br i1 %28, label %29, label %31

29:                                               ; preds = %27
  %30 = call i32 (ptr, ptr, ...) @BIO_printf(ptr noundef nonnull %0, ptr noundef nonnull @.str.107) #8
  br label %print_verify_result.exit

31:                                               ; preds = %27
  %32 = load ptr, ptr @bio_err, align 8, !tbaa !15
  %33 = call i32 (ptr, ptr, ...) @BIO_printf(ptr noundef %32, ptr noundef nonnull @.str.108) #8
  br label %print_verify_result.exit

print_verify_result.exit:                         ; preds = %25, %29, %31
  %spec.select = zext i1 %24 to i32
  br label %55

34:                                               ; preds = %18
  %.not32 = icmp eq ptr %5, null
  br i1 %.not32, label %52, label %35

35:                                               ; preds = %34
  %36 = load ptr, ptr %12, align 8, !tbaa !4
  %37 = zext nneg i32 %13 to i64
  %38 = call i32 @EVP_DigestSign(ptr noundef %1, ptr noundef null, ptr noundef nonnull %11, ptr noundef %36, i64 noundef %37) #8
  %.not33 = icmp eq i32 %38, 1
  br i1 %.not33, label %42, label %39

39:                                               ; preds = %35
  %40 = load ptr, ptr @bio_err, align 8, !tbaa !15
  %41 = call i32 (ptr, ptr, ...) @BIO_printf(ptr noundef %40, ptr noundef nonnull @.str.97) #8
  br label %55

42:                                               ; preds = %35
  %43 = load i64, ptr %11, align 8, !tbaa !36
  %44 = call ptr @app_malloc(i64 noundef %43, ptr noundef nonnull @.str.98) #8
  %45 = load ptr, ptr %12, align 8, !tbaa !4
  %46 = call i32 @EVP_DigestSign(ptr noundef %1, ptr noundef %44, ptr noundef nonnull %11, ptr noundef %45, i64 noundef %37) #8
  %.not34 = icmp eq i32 %46, 1
  br i1 %.not34, label %50, label %47

47:                                               ; preds = %42
  %48 = load ptr, ptr @bio_err, align 8, !tbaa !15
  %49 = call i32 (ptr, ptr, ...) @BIO_printf(ptr noundef %48, ptr noundef nonnull @.str.99) #8
  br label %55

50:                                               ; preds = %42
  %51 = load i64, ptr %11, align 8, !tbaa !36
  call fastcc void @print_out(ptr noundef nonnull %0, ptr noundef %44, i64 noundef %51, i32 noundef %3, i32 noundef %4, ptr noundef %8, ptr noundef null, ptr noundef %9)
  br label %55

52:                                               ; preds = %34
  %53 = load ptr, ptr @bio_err, align 8, !tbaa !15
  %54 = call i32 (ptr, ptr, ...) @BIO_printf(ptr noundef %53, ptr noundef nonnull @.str.116) #8
  %.pre = zext nneg i32 %13 to i64
  br label %55

55:                                               ; preds = %print_verify_result.exit, %50, %52, %47, %39
  %.pre-phi = phi i64 [ %22, %print_verify_result.exit ], [ %37, %50 ], [ %.pre, %52 ], [ %37, %47 ], [ %37, %39 ]
  %.029 = phi i32 [ %spec.select, %print_verify_result.exit ], [ 0, %50 ], [ 1, %52 ], [ 1, %47 ], [ 1, %39 ]
  %.0 = phi ptr [ null, %print_verify_result.exit ], [ %44, %50 ], [ null, %52 ], [ %44, %47 ], [ null, %39 ]
  call void @CRYPTO_free(ptr noundef %.0, ptr noundef nonnull @.str.95, i32 noundef 741) #8
  %56 = load ptr, ptr %12, align 8, !tbaa !4
  call void @CRYPTO_clear_free(ptr noundef %56, i64 noundef %.pre-phi, ptr noundef nonnull @.str.95, i32 noundef 742) #8
  br label %57

57:                                               ; preds = %55, %15
  %.028 = phi i32 [ 1, %15 ], [ %.029, %55 ]
  call void @llvm.lifetime.end.p0(i64 8, ptr nonnull %12) #8
  call void @llvm.lifetime.end.p0(i64 8, ptr nonnull %11) #8
  ret i32 %.028
}